target datalayout = "e-m:e-p270:32:32-p271:32:32-p272:64:64-i64:64-i128:128-f80:128-n8:16:32:64-S128"
target triple = "x86_64-pc-linux-gnu"

%struct.sc_data_s = type { i32, i32, i32, i32, i32, i32, i32, i64, i64, i32, i64, i64, i8, [235 x %struct.sc_s] }
%struct.sc_s = type { i32, i32, i32, i32, i8, i8, i32, i32 }

@je_sz_large_pad = hidden global i64 0, align 8
@je_sz_pind2sz_tab = hidden global [200 x i64] zeroinitializer, align 64
@je_sz_index2size_tab = hidden global [235 x i64] zeroinitializer, align 64
@je_sz_size2index_tab = hidden global [513 x i8] zeroinitializer, align 64

; Function Attrs: nounwind uwtable
define internal void @sz_boot_size2index_tab(ptr noundef %0) #0 {
  %2 = alloca ptr, align 8
  %3 = alloca i64, align 8
  %4 = alloca i64, align 8
  %5 = alloca i32, align 4
  %6 = alloca ptr, align 8
  %7 = alloca i64, align 8
  %8 = alloca i64, align 8
  store ptr %0, ptr %2, align 8, !tbaa !10
  call void @llvm.lifetime.start.p0(i64 8, ptr %3) #6
  store i64 513, ptr %3, align 8, !tbaa !4
  call void @llvm.lifetime.start.p0(i64 8, ptr %4) #6
  store i64 0, ptr %4, align 8, !tbaa !4
  call void @llvm.lifetime.start.p0(i64 4, ptr %5) #6
  store i32 0, ptr %5, align 4, !tbaa !8
  br label %9

9:                                                ; preds = %64, %1
  %10 = load i32, ptr %5, align 4, !tbaa !8
  %11 = zext i32 %10 to i64
  %12 = icmp ult i64 %11, 235
  br i1 %12, label %13, label %17

13:                                               ; preds = %9
  %14 = load i64, ptr %4, align 8, !tbaa !4
  %15 = load i64, ptr %3, align 8, !tbaa !4
  %16 = icmp ult i64 %14, %15
  br label %17

17:                                               ; preds = %13, %9
  %18 = phi i1 [ false, %9 ], [ %16, %13 ]
  br i1 %18, label %20, label %19

19:                                               ; preds = %17
  call void @llvm.lifetime.end.p0(i64 4, ptr %5) #6
  br label %67

20:                                               ; preds = %17
  call void @llvm.lifetime.start.p0(i64 8, ptr %6) #6
  %21 = load ptr, ptr %2, align 8, !tbaa !10
  %22 = getelementptr inbounds nuw %struct.sc_data_s, ptr %21, i32 0, i32 13
  %23 = load i32, ptr %5, align 4, !tbaa !8
  %24 = zext i32 %23 to i64
  %25 = getelementptr inbounds nuw [235 x %struct.sc_s], ptr %22, i64 0, i64 %24
  store ptr %25, ptr %6, align 8, !tbaa !17
  call void @llvm.lifetime.start.p0(i64 8, ptr %7) #6
  %26 = load ptr, ptr %6, align 8, !tbaa !17
  %27 = getelementptr inbounds nuw %struct.sc_s, ptr %26, i32 0, i32 1
  %28 = load i32, ptr %27, align 4, !tbaa !21
  %29 = zext i32 %28 to i64
  %30 = shl i64 1, %29
  %31 = load ptr, ptr %6, align 8, !tbaa !17
  %32 = getelementptr inbounds nuw %struct.sc_s, ptr %31, i32 0, i32 3
  %33 = load i32, ptr %32, align 4, !tbaa !22
  %34 = sext i32 %33 to i64
  %35 = load ptr, ptr %6, align 8, !tbaa !17
  %36 = getelementptr inbounds nuw %struct.sc_s, ptr %35, i32 0, i32 2
  %37 = load i32, ptr %36, align 4, !tbaa !23
  %38 = zext i32 %37 to i64
  %39 = shl i64 %34, %38
  %40 = add i64 %30, %39
  store i64 %40, ptr %7, align 8, !tbaa !4
  call void @llvm.lifetime.start.p0(i64 8, ptr %8) #6
  %41 = load i64, ptr %7, align 8, !tbaa !4
  %42 = add i64 %41, 8
  %43 = sub i64 %42, 1
  %44 = lshr i64 %43, 3
  store i64 %44, ptr %8, align 8, !tbaa !4
  br label %45

45:                                               ; preds = %60, %20
  %46 = load i64, ptr %4, align 8, !tbaa !4
  %47 = load i64, ptr %8, align 8, !tbaa !4
  %48 = icmp ule i64 %46, %47
  br i1 %48, label %49, label %53

49:                                               ; preds = %45
  %50 = load i64, ptr %4, align 8, !tbaa !4
  %51 = load i64, ptr %3, align 8, !tbaa !4
  %52 = icmp ult i64 %50, %51
  br label %53

53:                                               ; preds = %49, %45
  %54 = phi i1 [ false, %45 ], [ %52, %49 ]
  br i1 %54, label %55, label %63

55:                                               ; preds = %53
  %56 = load i32, ptr %5, align 4, !tbaa !8
  %57 = trunc i32 %56 to i8
  %58 = load i64, ptr %4, align 8, !tbaa !4
  %59 = getelementptr inbounds nuw [513 x i8], ptr @je_sz_size2index_tab, i64 0, i64 %58
  store i8 %57, ptr %59, align 1, !tbaa !30
  br label %60

60:                                               ; preds = %55
  %61 = load i64, ptr %4, align 8, !tbaa !4
  %62 = add i64 %61, 1
  store i64 %62, ptr %4, align 8, !tbaa !4
  br label %45, !llvm.loop !31

63:                                               ; preds = %53
  call void @llvm.lifetime.end.p0(i64 8, ptr %8) #6
  call void @llvm.lifetime.end.p0(i64 8, ptr %7) #6
  call void @llvm.lifetime.end.p0(i64 8, ptr %6) #6
  br label %64

64:                                               ; preds = %63
  %65 = load i32, ptr %5, align 4, !tbaa !8
  %66 = add i32 %65, 1
  store i32 %66, ptr %5, align 4, !tbaa !8
  br label %9, !llvm.loop !32

67:                                               ; preds = %19
  call void @llvm.lifetime.end.p0(i64 8, ptr %4) #6
  call void @llvm.lifetime.end.p0(i64 8, ptr %3) #6
  ret void
}

; Function Attrs: nounwind uwtable
define internal void @sz_boot_index2size_tab(ptr noundef %0) #0 {
  %2 = alloca ptr, align 8
  %3 = alloca i32, align 4
  %4 = alloca ptr, align 8
  store ptr %0, ptr %2, align 8, !tbaa !10
  call void @llvm.lifetime.start.p0(i64 4, ptr %3) #6
  store i32 0, ptr %3, align 4, !tbaa !8
  br label %5

5:                                                ; preds = %34, %1
  %6 = load i32, ptr %3, align 4, !tbaa !8
  %7 = zext i32 %6 to i64
  %8 = icmp ult i64 %7, 235
  br i1 %8, label %10, label %9

9:                                                ; preds = %5
  call void @llvm.lifetime.end.p0(i64 4, ptr %3) #6
  br label %37

10:                                               ; preds = %5
  call void @llvm.lifetime.start.p0(i64 8, ptr %4) #6
  %11 = load ptr, ptr %2, align 8, !tbaa !10
  %12 = getelementptr inbounds nuw %struct.sc_data_s, ptr %11, i32 0, i32 13
  %13 = load i32, ptr %3, align 4, !tbaa !8
  %14 = zext i32 %13 to i64
  %15 = getelementptr inbounds nuw [235 x %struct.sc_s], ptr %12, i64 0, i64 %14
  store ptr %15, ptr %4, align 8, !tbaa !17
  %16 = load ptr, ptr %4, align 8, !tbaa !17
  %17 = getelementptr inbounds nuw %struct.sc_s, ptr %16, i32 0, i32 1
  %18 = load i32, ptr %17, align 4, !tbaa !21
  %19 = zext i32 %18 to i64
  %20 = shl i64 1, %19
  %21 = load ptr, ptr %4, align 8, !tbaa !17
  %22 = getelementptr inbounds nuw %struct.sc_s, ptr %21, i32 0, i32 3
  %23 = load i32, ptr %22, align 4, !tbaa !22
  %24 = sext i32 %23 to i64
  %25 = load ptr, ptr %4, align 8, !tbaa !17
  %26 = getelementptr inbounds nuw %struct.sc_s, ptr %25, i32 0, i32 2
  %27 = load i32, ptr %26, align 4, !tbaa !23
  %28 = zext i32 %27 to i64
  %29 = shl i64 %24, %28
  %30 = add i64 %20, %29
  %31 = load i32, ptr %3, align 4, !tbaa !8
  %32 = zext i32 %31 to i64
  %33 = getelementptr inbounds nuw [235 x i64], ptr @je_sz_index2size_tab, i64 0, i64 %32
  store i64 %30, ptr %33, align 8, !tbaa !4
  call void @llvm.lifetime.end.p0(i64 8, ptr %4) #6
  br label %34

34:                                               ; preds = %10
  %35 = load i32, ptr %3, align 4, !tbaa !8
  %36 = add i32 %35, 1
  store i32 %36, ptr %3, align 4, !tbaa !8
  br label %5, !llvm.loop !29

37:                                               ; preds = %9
  ret void
}

; Function Attrs: nounwind uwtable
define internal void @sz_boot_pind2sz_tab(ptr noundef %0) #0 {
  %2 = alloca ptr, align 8
  %3 = alloca i32, align 4
  %4 = alloca i32, align 4
  %5 = alloca ptr, align 8
  %6 = alloca i32, align 4
  store ptr %0, ptr %2, align 8, !tbaa !10
  call void @llvm.lifetime.start.p0(i64 4, ptr %3) #6
  store i32 0, ptr %3, align 4, !tbaa !8
  call void @llvm.lifetime.start.p0(i64 4, ptr %4) #6
  store i32 0, ptr %4, align 4, !tbaa !8
  br label %7

7:                                                ; preds = %44, %1
  %8 = load i32, ptr %4, align 4, !tbaa !8
  %9 = zext i32 %8 to i64
  %10 = icmp ult i64 %9, 235
  br i1 %10, label %12, label %11

11:                                               ; preds = %7
  call void @llvm.lifetime.end.p0(i64 4, ptr %4) #6
  br label %47

12:                                               ; preds = %7
  call void @llvm.lifetime.start.p0(i64 8, ptr %5) #6
  %13 = load ptr, ptr %2, align 8, !tbaa !10
  %14 = getelementptr inbounds nuw %struct.sc_data_s, ptr %13, i32 0, i32 13
  %15 = load i32, ptr %4, align 4, !tbaa !8
  %16 = zext i32 %15 to i64
  %17 = getelementptr inbounds nuw [235 x %struct.sc_s], ptr %14, i64 0, i64 %16
  store ptr %17, ptr %5, align 8, !tbaa !17
  %18 = load ptr, ptr %5, align 8, !tbaa !17
  %19 = getelementptr inbounds nuw %struct.sc_s, ptr %18, i32 0, i32 4
  %20 = load i8, ptr %19, align 4, !tbaa !19, !range !15, !noundef !16
  %21 = trunc i8 %20 to i1
  br i1 %21, label %22, label %43

22:                                               ; preds = %12
  %23 = load ptr, ptr %5, align 8, !tbaa !17
  %24 = getelementptr inbounds nuw %struct.sc_s, ptr %23, i32 0, i32 1
  %25 = load i32, ptr %24, align 4, !tbaa !21
  %26 = zext i32 %25 to i64
  %27 = shl i64 1, %26
  %28 = load ptr, ptr %5, align 8, !tbaa !17
  %29 = getelementptr inbounds nuw %struct.sc_s, ptr %28, i32 0, i32 3
  %30 = load i32, ptr %29, align 4, !tbaa !22
  %31 = sext i32 %30 to i64
  %32 = load ptr, ptr %5, align 8, !tbaa !17
  %33 = getelementptr inbounds nuw %struct.sc_s, ptr %32, i32 0, i32 2
  %34 = load i32, ptr %33, align 4, !tbaa !23
  %35 = zext i32 %34 to i64
  %36 = shl i64 %31, %35
  %37 = add i64 %27, %36
  %38 = load i32, ptr %3, align 4, !tbaa !8
  %39 = sext i32 %38 to i64
  %40 = getelementptr inbounds [200 x i64], ptr @je_sz_pind2sz_tab, i64 0, i64 %39
  store i64 %37, ptr %40, align 8, !tbaa !4
  %41 = load i32, ptr %3, align 4, !tbaa !8
  %42 = add nsw i32 %41, 1
  store i32 %42, ptr %3, align 4, !tbaa !8
  br label %43

43:                                               ; preds = %22, %12
  call void @llvm.lifetime.end.p0(i64 8, ptr %5) #6
  br label %44

44:                                               ; preds = %43
  %45 = load i32, ptr %4, align 4, !tbaa !8
  %46 = add i32 %45, 1
  store i32 %46, ptr %4, align 4, !tbaa !8
  br label %7, !llvm.loop !24

47:                                               ; preds = %11
  call void @llvm.lifetime.start.p0(i64 4, ptr %6) #6
  %48 = load i32, ptr %3, align 4, !tbaa !8
  store i32 %48, ptr %6, align 4, !tbaa !8
  br label %49

49:                                               ; preds = %61, %47
  %50 = load i32, ptr %6, align 4, !tbaa !8
  %51 = icmp sle i32 %50, 199
  br i1 %51, label %53, label %52

52:                                               ; preds = %49
  call void @llvm.lifetime.end.p0(i64 4, ptr %6) #6
  br label %64

53:                                               ; preds = %49
  %54 = load ptr, ptr %2, align 8, !tbaa !10
  %55 = getelementptr inbounds nuw %struct.sc_data_s, ptr %54, i32 0, i32 11
  %56 = load i64, ptr %55, align 8, !tbaa !26
  %57 = add i64 %56, 4096
  %58 = load i32, ptr %3, align 4, !tbaa !8
  %59 = sext i32 %58 to i64
  %60 = getelementptr inbounds [200 x i64], ptr @je_sz_pind2sz_tab, i64 0, i64 %59
  store i64 %57, ptr %60, align 8, !tbaa !4
  br label %61

61:                                               ; preds = %53
  %62 = load i32, ptr %6, align 4, !tbaa !8
  %63 = add nsw i32 %62, 1
  store i32 %63, ptr %6, align 4, !tbaa !8
  br label %49, !llvm.loop !28

64:                                               ; preds = %52
  call void @llvm.lifetime.end.p0(i64 4, ptr %3) #6
  ret void
}

; Function Attrs: nounwind uwtable
define hidden void @je_sz_boot(ptr noundef %0, i1 noundef zeroext %1) #0 {
  %3 = alloca ptr, align 8
  %4 = alloca i8, align 1
  store ptr %0, ptr %3, align 8, !tbaa !10
  %5 = zext i1 %1 to i8
  store i8 %5, ptr %4, align 1, !tbaa !13
  %6 = load i8, ptr %4, align 1, !tbaa !13, !range !15, !noundef !16
  %7 = trunc i8 %6 to i1
  %8 = select i1 %7, i64 4096, i64 0
  store i64 %8, ptr @je_sz_large_pad, align 8, !tbaa !4
  %9 = load ptr, ptr %3, align 8, !tbaa !10
  call void @sz_boot_pind2sz_tab(ptr noundef %9)
  %10 = load ptr, ptr %3, align 8, !tbaa !10
  call void @sz_boot_index2size_tab(ptr noundef %10)
  %11 = load ptr, ptr %3, align 8, !tbaa !10
  call void @sz_boot_size2index_tab(ptr noundef %11)
  ret void
}