; Function Attrs: nofree norecurse nosync nounwind memory(write, argmem: read, inaccessiblemem: none) uwtable
define hidden void @je_sz_boot(ptr noundef readonly captures(none) %0, i1 noundef zeroext %1) local_unnamed_addr #1 {
  %3 = select i1 %1, i64 4096, i64 0
  store i64 %3, ptr @je_sz_large_pad, align 8, !tbaa !4
  %4 = getelementptr inbounds nuw i8, ptr %0, i64 76
  br label %9

.preheader.i:                                     ; preds = %30
  %5 = icmp slt i32 %.1.i, 200
  br i1 %5, label %.lr.ph.i, label %sz_boot_pind2sz_tab.exit.preheader

.lr.ph.i:                                         ; preds = %.preheader.i
  %6 = getelementptr inbounds nuw i8, ptr %0, i64 64
  %7 = sext i32 %.1.i to i64
  %8 = getelementptr inbounds [200 x i64], ptr @je_sz_pind2sz_tab, i64 0, i64 %7
  br label %31

9:                                                ; preds = %30, %2
  %indvars.iv.i = phi i64 [ 0, %2 ], [ %indvars.iv.next.i, %30 ]
  %.01418.i = phi i32 [ 0, %2 ], [ %.1.i, %30 ]
  %10 = getelementptr inbounds nuw [235 x %struct.sc_s], ptr %4, i64 0, i64 %indvars.iv.i
  %11 = getelementptr inbounds nuw i8, ptr %10, i64 16
  %12 = load i8, ptr %11, align 4, !tbaa !9, !range !13, !noundef !14
  %13 = trunc nuw i8 %12 to i1
  br i1 %13, label %14, label %30

14:                                               ; preds = %9
  %15 = getelementptr inbounds nuw i8, ptr %10, i64 4
  %16 = load i32, ptr %15, align 4, !tbaa !15
  %17 = zext nneg i32 %16 to i64
  %18 = shl nuw i64 1, %17
  %19 = getelementptr inbounds nuw i8, ptr %10, i64 12
  %20 = load i32, ptr %19, align 4, !tbaa !16
  %21 = sext i32 %20 to i64
  %22 = getelementptr inbounds nuw i8, ptr %10, i64 8
  %23 = load i32, ptr %22, align 4, !tbaa !17
  %24 = zext nneg i32 %23 to i64
  %25 = shl i64 %21, %24
  %26 = add i64 %25, %18
  %27 = sext i32 %.01418.i to i64
  %28 = getelementptr inbounds [200 x i64], ptr @je_sz_pind2sz_tab, i64 0, i64 %27
  store i64 %26, ptr %28, align 8, !tbaa !4
  %29 = add nsw i32 %.01418.i, 1
  br label %30

30:                                               ; preds = %14, %9
  %.1.i = phi i32 [ %29, %14 ], [ %.01418.i, %9 ]
  %indvars.iv.next.i = add nuw nsw i64 %indvars.iv.i, 1
  %exitcond.not.i = icmp eq i64 %indvars.iv.next.i, 235
  br i1 %exitcond.not.i, label %.preheader.i, label %9, !llvm.loop !18

31:                                               ; preds = %31, %.lr.ph.i
  %.019.i = phi i32 [ %.1.i, %.lr.ph.i ], [ %34, %31 ]
  %32 = load i64, ptr %6, align 8, !tbaa !20
  %33 = add i64 %32, 4096
  store i64 %33, ptr %8, align 8, !tbaa !4
  %34 = add i32 %.019.i, 1
  %exitcond21.not.i = icmp eq i32 %34, 200
  br i1 %exitcond21.not.i, label %sz_boot_pind2sz_tab.exit.preheader, label %31, !llvm.loop !22

sz_boot_pind2sz_tab.exit.preheader:               ; preds = %31, %.preheader.i
  br label %sz_boot_pind2sz_tab.exit

sz_boot_pind2sz_tab.exit:                         ; preds = %sz_boot_pind2sz_tab.exit.preheader, %sz_boot_pind2sz_tab.exit
  %indvars.iv.i3 = phi i64 [ %indvars.iv.next.i4, %sz_boot_pind2sz_tab.exit ], [ 0, %sz_boot_pind2sz_tab.exit.preheader ]
  %35 = getelementptr inbounds nuw [235 x %struct.sc_s], ptr %4, i64 0, i64 %indvars.iv.i3
  %36 = getelementptr inbounds nuw i8, ptr %35, i64 4
  %37 = load i32, ptr %36, align 4, !tbaa !15
  %38 = zext nneg i32 %37 to i64
  %39 = shl nuw i64 1, %38
  %40 = getelementptr inbounds nuw i8, ptr %35, i64 12
  %41 = load i32, ptr %40, align 4, !tbaa !16
  %42 = sext i32 %41 to i64
  %43 = getelementptr inbounds nuw i8, ptr %35, i64 8
  %44 = load i32, ptr %43, align 4, !tbaa !17
  %45 = zext nneg i32 %44 to i64
  %46 = shl i64 %42, %45
  %47 = add i64 %46, %39
  %48 = getelementptr inbounds nuw [235 x i64], ptr @je_sz_index2size_tab, i64 0, i64 %indvars.iv.i3
  store i64 %47, ptr %48, align 8, !tbaa !4
  %indvars.iv.next.i4 = add nuw nsw i64 %indvars.iv.i3, 1
  %exitcond.not.i5 = icmp eq i64 %indvars.iv.next.i4, 235
  br i1 %exitcond.not.i5, label %sz_boot_index2size_tab.exit, label %sz_boot_pind2sz_tab.exit, !llvm.loop !23

sz_boot_index2size_tab.exit:                      ; preds = %sz_boot_pind2sz_tab.exit, %._crit_edge.i
  %indvars.iv.i6 = phi i64 [ %indvars.iv.next.i8, %._crit_edge.i ], [ 0, %sz_boot_pind2sz_tab.exit ]
  %.020.i = phi i64 [ %.1.lcssa.i, %._crit_edge.i ], [ 0, %sz_boot_pind2sz_tab.exit ]
  %49 = getelementptr inbounds nuw [235 x %struct.sc_s], ptr %4, i64 0, i64 %indvars.iv.i6
  %50 = getelementptr inbounds nuw i8, ptr %49, i64 4
  %51 = load i32, ptr %50, align 4, !tbaa !15
  %52 = zext nneg i32 %51 to i64
  %53 = shl nuw i64 1, %52
  %54 = getelementptr inbounds nuw i8, ptr %49, i64 12
  %55 = load i32, ptr %54, align 4, !tbaa !16
  %56 = sext i32 %55 to i64
  %57 = getelementptr inbounds nuw i8, ptr %49, i64 8
  %58 = load i32, ptr %57, align 4, !tbaa !17
  %59 = zext nneg i32 %58 to i64
  %60 = shl i64 %56, %59
  %61 = add nuw i64 %53, 7
  %62 = add i64 %61, %60
  %63 = lshr i64 %62, 3
  %.not.i = icmp samesign ugt i64 %.020.i, %63
  br i1 %.not.i, label %._crit_edge.i, label %.lr.ph.i7

.lr.ph.i7:                                        ; preds = %sz_boot_index2size_tab.exit
  %64 = trunc i64 %indvars.iv.i6 to i8
  %scevgep.i = getelementptr i8, ptr @je_sz_size2index_tab, i64 %.020.i
  %65 = tail call i64 @llvm.usub.sat.i64(i64 512, i64 %.020.i)
  %66 = sub nuw nsw i64 %63, %.020.i
  %umin.i = tail call i64 @llvm.umin.i64(i64 %65, i64 %66)
  %67 = add nuw nsw i64 %umin.i, 1
  tail call void @llvm.memset.p0.i64(ptr noundef nonnull align 1 dereferenceable(1) %scevgep.i, i8 %64, i64 %67, i1 false), !tbaa !24
  %68 = add nuw nsw i64 %.020.i, 1
  %69 = add nuw nsw i64 %68, %umin.i
  br label %._crit_edge.i

._crit_edge.i:                                    ; preds = %.lr.ph.i7, %sz_boot_index2size_tab.exit
  %.1.lcssa.i = phi i64 [ %.020.i, %sz_boot_index2size_tab.exit ], [ %69, %.lr.ph.i7 ]
  %indvars.iv.next.i8 = add nuw nsw i64 %indvars.iv.i6, 1
  %70 = icmp samesign ult i64 %indvars.iv.i6, 234
  %71 = icmp ult i64 %.1.lcssa.i, 513
  %72 = and i1 %70, %71
  br i1 %72, label %sz_boot_index2size_tab.exit, label %sz_boot_size2index_tab.exit, !llvm.loop !25

sz_boot_size2index_tab.exit:                      ; preds = %._crit_edge.i
  ret void
}